target datalayout = "e-m:e-p270:32:32-p271:32:32-p272:64:64-i64:64-i128:128-f80:128-n8:16:32:64-S128"
target triple = "x86_64-pc-linux-gnu"

%struct.GetBitContext = type { ptr, ptr, i32, i32, i32 }

@ff_log2_tab = external constant [256 x i8], align 16

; Function Attrs: alwaysinline nounwind willreturn memory(none) uwtable
define internal i32 @ff_log2_c(i32 noundef %0) #7 {
  %2 = alloca i32, align 4
  %3 = alloca i32, align 4
  store i32 %0, ptr %2, align 4, !tbaa !44
  call void @llvm.lifetime.start.p0(i64 4, ptr %3) #11
  store i32 0, ptr %3, align 4, !tbaa !44
  %4 = load i32, ptr %2, align 4, !tbaa !44
  %5 = and i32 %4, -65536
  %6 = icmp ne i32 %5, 0
  br i1 %6, label %7, label %12

7:                                                ; preds = %1
  %8 = load i32, ptr %2, align 4, !tbaa !44
  %9 = lshr i32 %8, 16
  store i32 %9, ptr %2, align 4, !tbaa !44
  %10 = load i32, ptr %3, align 4, !tbaa !44
  %11 = add nsw i32 %10, 16
  store i32 %11, ptr %3, align 4, !tbaa !44
  br label %12

12:                                               ; preds = %7, %1
  %13 = load i32, ptr %2, align 4, !tbaa !44
  %14 = and i32 %13, 65280
  %15 = icmp ne i32 %14, 0
  br i1 %15, label %16, label %21

16:                                               ; preds = %12
  %17 = load i32, ptr %2, align 4, !tbaa !44
  %18 = lshr i32 %17, 8
  store i32 %18, ptr %2, align 4, !tbaa !44
  %19 = load i32, ptr %3, align 4, !tbaa !44
  %20 = add nsw i32 %19, 8
  store i32 %20, ptr %3, align 4, !tbaa !44
  br label %21

21:                                               ; preds = %16, %12
  %22 = load i32, ptr %2, align 4, !tbaa !44
  %23 = zext i32 %22 to i64
  %24 = getelementptr inbounds nuw [256 x i8], ptr @ff_log2_tab, i64 0, i64 %23
  %25 = load i8, ptr %24, align 1, !tbaa !57
  %26 = zext i8 %25 to i32
  %27 = load i32, ptr %3, align 4, !tbaa !44
  %28 = add nsw i32 %27, %26
  store i32 %28, ptr %3, align 4, !tbaa !44
  %29 = load i32, ptr %3, align 4, !tbaa !44
  call void @llvm.lifetime.end.p0(i64 4, ptr %3) #11
  ret i32 %29
}

; Function Attrs: alwaysinline nounwind willreturn memory(none) uwtable
define internal i32 @av_bswap32(i32 noundef %0) #7 {
  %2 = alloca i32, align 4
  store i32 %0, ptr %2, align 4, !tbaa !44
  %3 = load i32, ptr %2, align 4, !tbaa !44
  %4 = shl i32 %3, 8
  %5 = and i32 %4, 65280
  %6 = load i32, ptr %2, align 4, !tbaa !44
  %7 = lshr i32 %6, 8
  %8 = and i32 %7, 255
  %9 = or i32 %5, %8
  %10 = shl i32 %9, 16
  %11 = load i32, ptr %2, align 4, !tbaa !44
  %12 = lshr i32 %11, 16
  %13 = shl i32 %12, 8
  %14 = and i32 %13, 65280
  %15 = load i32, ptr %2, align 4, !tbaa !44
  %16 = lshr i32 %15, 16
  %17 = lshr i32 %16, 8
  %18 = and i32 %17, 255
  %19 = or i32 %14, %18
  %20 = or i32 %10, %19
  ret i32 %20
}

; Function Attrs: inlinehint nounwind uwtable
define internal i32 @get_ur_golomb_jpegls(ptr noundef %0, i32 noundef %1, i32 noundef %2, i32 noundef %3) #6 {
  %5 = alloca i32, align 4
  %6 = alloca ptr, align 8
  %7 = alloca i32, align 4
  %8 = alloca i32, align 4
  %9 = alloca i32, align 4
  %10 = alloca i32, align 4
  %11 = alloca i32, align 4
  %12 = alloca i32, align 4
  %13 = alloca i32, align 4
  %14 = alloca i32, align 4
  %15 = alloca i32, align 4
  %16 = alloca i32, align 4
  store ptr %0, ptr %6, align 8, !tbaa !86
  store i32 %1, ptr %7, align 4, !tbaa !44
  store i32 %2, ptr %8, align 4, !tbaa !44
  store i32 %3, ptr %9, align 4, !tbaa !44
  call void @llvm.lifetime.start.p0(i64 4, ptr %10) #11
  call void @llvm.lifetime.start.p0(i64 4, ptr %11) #11
  call void @llvm.lifetime.start.p0(i64 4, ptr %12) #11
  %17 = load ptr, ptr %6, align 8, !tbaa !86
  %18 = getelementptr inbounds nuw %struct.GetBitContext, ptr %17, i32 0, i32 2
  %19 = load i32, ptr %18, align 8, !tbaa !88
  store i32 %19, ptr %12, align 4, !tbaa !44
  call void @llvm.lifetime.start.p0(i64 4, ptr %13) #11
  call void @llvm.lifetime.start.p0(i64 4, ptr %14) #11
  %20 = load ptr, ptr %6, align 8, !tbaa !86
  %21 = getelementptr inbounds nuw %struct.GetBitContext, ptr %20, i32 0, i32 4
  %22 = load i32, ptr %21, align 8, !tbaa !89
  store i32 %22, ptr %14, align 4, !tbaa !44
  %23 = load ptr, ptr %6, align 8, !tbaa !86
  %24 = getelementptr inbounds nuw %struct.GetBitContext, ptr %23, i32 0, i32 0
  %25 = load ptr, ptr %24, align 8, !tbaa !106
  %26 = load i32, ptr %12, align 4, !tbaa !44
  %27 = lshr i32 %26, 3
  %28 = zext i32 %27 to i64
  %29 = getelementptr inbounds nuw i8, ptr %25, i64 %28
  %30 = load i32, ptr %29, align 1, !tbaa !57
  %31 = call i32 @av_bswap32(i32 noundef %30) #12
  %32 = load i32, ptr %12, align 4, !tbaa !44
  %33 = and i32 %32, 7
  %34 = shl i32 %31, %33
  %35 = lshr i32 %34, 0
  store i32 %35, ptr %13, align 4, !tbaa !44
  %36 = load i32, ptr %13, align 4, !tbaa !44
  store i32 %36, ptr %10, align 4, !tbaa !44
  %37 = load i32, ptr %10, align 4, !tbaa !44
  %38 = call i32 @ff_log2_c(i32 noundef %37) #12
  store i32 %38, ptr %11, align 4, !tbaa !44
  %39 = load i32, ptr %11, align 4, !tbaa !44
  %40 = load i32, ptr %7, align 4, !tbaa !44
  %41 = sub nsw i32 %39, %40
  %42 = icmp sge i32 %41, 7
  br i1 %42, label %43, label %83

43:                                               ; preds = %4
  %44 = load i32, ptr %11, align 4, !tbaa !44
  %45 = sub nsw i32 32, %44
  %46 = load i32, ptr %8, align 4, !tbaa !44
  %47 = icmp slt i32 %45, %46
  br i1 %47, label %48, label %83

48:                                               ; preds = %43
  %49 = load i32, ptr %11, align 4, !tbaa !44
  %50 = load i32, ptr %7, align 4, !tbaa !44
  %51 = sub nsw i32 %49, %50
  %52 = load i32, ptr %10, align 4, !tbaa !44
  %53 = lshr i32 %52, %51
  store i32 %53, ptr %10, align 4, !tbaa !44
  %54 = load i32, ptr %11, align 4, !tbaa !44
  %55 = sub i32 30, %54
  %56 = load i32, ptr %7, align 4, !tbaa !44
  %57 = shl i32 %55, %56
  %58 = load i32, ptr %10, align 4, !tbaa !44
  %59 = add i32 %58, %57
  store i32 %59, ptr %10, align 4, !tbaa !44
  %60 = load i32, ptr %14, align 4, !tbaa !44
  %61 = load i32, ptr %12, align 4, !tbaa !44
  %62 = load i32, ptr %7, align 4, !tbaa !44
  %63 = add nsw i32 32, %62
  %64 = load i32, ptr %11, align 4, !tbaa !44
  %65 = sub nsw i32 %63, %64
  %66 = add i32 %61, %65
  %67 = icmp ugt i32 %60, %66
  br i1 %67, label %68, label %75

68:                                               ; preds = %48
  %69 = load i32, ptr %12, align 4, !tbaa !44
  %70 = load i32, ptr %7, align 4, !tbaa !44
  %71 = add nsw i32 32, %70
  %72 = load i32, ptr %11, align 4, !tbaa !44
  %73 = sub nsw i32 %71, %72
  %74 = add i32 %69, %73
  br label %77

75:                                               ; preds = %48
  %76 = load i32, ptr %14, align 4, !tbaa !44
  br label %77

77:                                               ; preds = %75, %68
  %78 = phi i32 [ %74, %68 ], [ %76, %75 ]
  store i32 %78, ptr %12, align 4, !tbaa !44
  %79 = load i32, ptr %12, align 4, !tbaa !44
  %80 = load ptr, ptr %6, align 8, !tbaa !86
  %81 = getelementptr inbounds nuw %struct.GetBitContext, ptr %80, i32 0, i32 2
  store i32 %79, ptr %81, align 8, !tbaa !88
  %82 = load i32, ptr %10, align 4, !tbaa !44
  store i32 %82, ptr %5, align 4
  store i32 1, ptr %15, align 4
  br label %310

83:                                               ; preds = %43, %4
  call void @llvm.lifetime.start.p0(i64 4, ptr %16) #11
  store i32 0, ptr %16, align 4, !tbaa !44
  br label %84

84:                                               ; preds = %130, %83
  %85 = load i32, ptr %16, align 4, !tbaa !44
  %86 = add nsw i32 %85, 25
  %87 = load i32, ptr %8, align 4, !tbaa !44
  %88 = icmp sle i32 %86, %87
  br i1 %88, label %89, label %93

89:                                               ; preds = %84
  %90 = load i32, ptr %13, align 4, !tbaa !44
  %91 = lshr i32 %90, 7
  %92 = icmp eq i32 %91, 0
  br label %93

93:                                               ; preds = %89, %84
  %94 = phi i1 [ false, %84 ], [ %92, %89 ]
  br i1 %94, label %95, label %133

95:                                               ; preds = %93
  %96 = load ptr, ptr %6, align 8, !tbaa !86
  %97 = getelementptr inbounds nuw %struct.GetBitContext, ptr %96, i32 0, i32 3
  %98 = load i32, ptr %97, align 4, !tbaa !97
  %99 = load i32, ptr %12, align 4, !tbaa !44
  %100 = icmp ule i32 %98, %99
  br i1 %100, label %101, label %105

101:                                              ; preds = %95
  %102 = load i32, ptr %12, align 4, !tbaa !44
  %103 = load ptr, ptr %6, align 8, !tbaa !86
  %104 = getelementptr inbounds nuw %struct.GetBitContext, ptr %103, i32 0, i32 2
  store i32 %102, ptr %104, align 8, !tbaa !88
  store i32 -1, ptr %5, align 4
  store i32 1, ptr %15, align 4
  br label %309

105:                                              ; preds = %95
  %106 = load i32, ptr %14, align 4, !tbaa !44
  %107 = load i32, ptr %12, align 4, !tbaa !44
  %108 = add i32 %107, 25
  %109 = icmp ugt i32 %106, %108
  br i1 %109, label %110, label %113

110:                                              ; preds = %105
  %111 = load i32, ptr %12, align 4, !tbaa !44
  %112 = add i32 %111, 25
  br label %115

113:                                              ; preds = %105
  %114 = load i32, ptr %14, align 4, !tbaa !44
  br label %115

115:                                              ; preds = %113, %110
  %116 = phi i32 [ %112, %110 ], [ %114, %113 ]
  store i32 %116, ptr %12, align 4, !tbaa !44
  %117 = load ptr, ptr %6, align 8, !tbaa !86
  %118 = getelementptr inbounds nuw %struct.GetBitContext, ptr %117, i32 0, i32 0
  %119 = load ptr, ptr %118, align 8, !tbaa !106
  %120 = load i32, ptr %12, align 4, !tbaa !44
  %121 = lshr i32 %120, 3
  %122 = zext i32 %121 to i64
  %123 = getelementptr inbounds nuw i8, ptr %119, i64 %122
  %124 = load i32, ptr %123, align 1, !tbaa !57
  %125 = call i32 @av_bswap32(i32 noundef %124) #12
  %126 = load i32, ptr %12, align 4, !tbaa !44
  %127 = and i32 %126, 7
  %128 = shl i32 %125, %127
  %129 = lshr i32 %128, 0
  store i32 %129, ptr %13, align 4, !tbaa !44
  br label %130

130:                                              ; preds = %115
  %131 = load i32, ptr %16, align 4, !tbaa !44
  %132 = add nsw i32 %131, 25
  store i32 %132, ptr %16, align 4, !tbaa !44
  br label %84, !llvm.loop !124

133:                                              ; preds = %93
  br label %134

134:                                              ; preds = %161, %133
  %135 = load i32, ptr %16, align 4, !tbaa !44
  %136 = load i32, ptr %8, align 4, !tbaa !44
  %137 = icmp slt i32 %135, %136
  br i1 %137, label %138, label %142

138:                                              ; preds = %134
  %139 = load i32, ptr %13, align 4, !tbaa !44
  %140 = lshr i32 %139, 31
  %141 = icmp eq i32 %140, 0
  br label %142

142:                                              ; preds = %138, %134
  %143 = phi i1 [ false, %134 ], [ %141, %138 ]
  br i1 %143, label %144, label %164

144:                                              ; preds = %142
  br label %145

145:                                              ; preds = %144
  %146 = load i32, ptr %13, align 4, !tbaa !44
  %147 = shl i32 %146, 1
  store i32 %147, ptr %13, align 4, !tbaa !44
  %148 = load i32, ptr %14, align 4, !tbaa !44
  %149 = load i32, ptr %12, align 4, !tbaa !44
  %150 = add i32 %149, 1
  %151 = icmp ugt i32 %148, %150
  br i1 %151, label %152, label %155

152:                                              ; preds = %145
  %153 = load i32, ptr %12, align 4, !tbaa !44
  %154 = add i32 %153, 1
  br label %157

155:                                              ; preds = %145
  %156 = load i32, ptr %14, align 4, !tbaa !44
  br label %157

157:                                              ; preds = %155, %152
  %158 = phi i32 [ %154, %152 ], [ %156, %155 ]
  store i32 %158, ptr %12, align 4, !tbaa !44
  br label %159

159:                                              ; preds = %157
  br label %160

160:                                              ; preds = %159
  br label %161

161:                                              ; preds = %160
  %162 = load i32, ptr %16, align 4, !tbaa !44
  %163 = add nsw i32 %162, 1
  store i32 %163, ptr %16, align 4, !tbaa !44
  br label %134, !llvm.loop !125

164:                                              ; preds = %142
  %165 = load i32, ptr %14, align 4, !tbaa !44
  %166 = load i32, ptr %12, align 4, !tbaa !44
  %167 = add i32 %166, 1
  %168 = icmp ugt i32 %165, %167
  br i1 %168, label %169, label %172

169:                                              ; preds = %164
  %170 = load i32, ptr %12, align 4, !tbaa !44
  %171 = add i32 %170, 1
  br label %174

172:                                              ; preds = %164
  %173 = load i32, ptr %14, align 4, !tbaa !44
  br label %174

174:                                              ; preds = %172, %169
  %175 = phi i32 [ %171, %169 ], [ %173, %172 ]
  store i32 %175, ptr %12, align 4, !tbaa !44
  %176 = load ptr, ptr %6, align 8, !tbaa !86
  %177 = getelementptr inbounds nuw %struct.GetBitContext, ptr %176, i32 0, i32 0
  %178 = load ptr, ptr %177, align 8, !tbaa !106
  %179 = load i32, ptr %12, align 4, !tbaa !44
  %180 = lshr i32 %179, 3
  %181 = zext i32 %180 to i64
  %182 = getelementptr inbounds nuw i8, ptr %178, i64 %181
  %183 = load i32, ptr %182, align 1, !tbaa !57
  %184 = call i32 @av_bswap32(i32 noundef %183) #12
  %185 = load i32, ptr %12, align 4, !tbaa !44
  %186 = and i32 %185, 7
  %187 = shl i32 %184, %186
  %188 = lshr i32 %187, 0
  store i32 %188, ptr %13, align 4, !tbaa !44
  %189 = load i32, ptr %16, align 4, !tbaa !44
  %190 = load i32, ptr %8, align 4, !tbaa !44
  %191 = sub nsw i32 %190, 1
  %192 = icmp slt i32 %189, %191
  br i1 %192, label %193, label %277

193:                                              ; preds = %174
  %194 = load i32, ptr %7, align 4, !tbaa !44
  %195 = icmp ne i32 %194, 0
  br i1 %195, label %196, label %270

196:                                              ; preds = %193
  %197 = load i32, ptr %7, align 4, !tbaa !44
  %198 = icmp sgt i32 %197, 24
  br i1 %198, label %199, label %251

199:                                              ; preds = %196
  %200 = load i32, ptr %13, align 4, !tbaa !44
  %201 = lshr i32 %200, 16
  %202 = load i32, ptr %7, align 4, !tbaa !44
  %203 = sub nsw i32 %202, 16
  %204 = shl i32 %201, %203
  store i32 %204, ptr %10, align 4, !tbaa !44
  %205 = load i32, ptr %14, align 4, !tbaa !44
  %206 = load i32, ptr %12, align 4, !tbaa !44
  %207 = add i32 %206, 16
  %208 = icmp ugt i32 %205, %207
  br i1 %208, label %209, label %212

209:                                              ; preds = %199
  %210 = load i32, ptr %12, align 4, !tbaa !44
  %211 = add i32 %210, 16
  br label %214

212:                                              ; preds = %199
  %213 = load i32, ptr %14, align 4, !tbaa !44
  br label %214

214:                                              ; preds = %212, %209
  %215 = phi i32 [ %211, %209 ], [ %213, %212 ]
  store i32 %215, ptr %12, align 4, !tbaa !44
  %216 = load ptr, ptr %6, align 8, !tbaa !86
  %217 = getelementptr inbounds nuw %struct.GetBitContext, ptr %216, i32 0, i32 0
  %218 = load ptr, ptr %217, align 8, !tbaa !106
  %219 = load i32, ptr %12, align 4, !tbaa !44
  %220 = lshr i32 %219, 3
  %221 = zext i32 %220 to i64
  %222 = getelementptr inbounds nuw i8, ptr %218, i64 %221
  %223 = load i32, ptr %222, align 1, !tbaa !57
  %224 = call i32 @av_bswap32(i32 noundef %223) #12
  %225 = load i32, ptr %12, align 4, !tbaa !44
  %226 = and i32 %225, 7
  %227 = shl i32 %224, %226
  %228 = lshr i32 %227, 0
  store i32 %228, ptr %13, align 4, !tbaa !44
  %229 = load i32, ptr %13, align 4, !tbaa !44
  %230 = load i32, ptr %7, align 4, !tbaa !44
  %231 = sub nsw i32 %230, 16
  %232 = sub nsw i32 32, %231
  %233 = lshr i32 %229, %232
  %234 = load i32, ptr %10, align 4, !tbaa !44
  %235 = or i32 %234, %233
  store i32 %235, ptr %10, align 4, !tbaa !44
  %236 = load i32, ptr %14, align 4, !tbaa !44
  %237 = load i32, ptr %12, align 4, !tbaa !44
  %238 = load i32, ptr %7, align 4, !tbaa !44
  %239 = sub nsw i32 %238, 16
  %240 = add i32 %237, %239
  %241 = icmp ugt i32 %236, %240
  br i1 %241, label %242, label %247

242:                                              ; preds = %214
  %243 = load i32, ptr %12, align 4, !tbaa !44
  %244 = load i32, ptr %7, align 4, !tbaa !44
  %245 = sub nsw i32 %244, 16
  %246 = add i32 %243, %245
  br label %249

247:                                              ; preds = %214
  %248 = load i32, ptr %14, align 4, !tbaa !44
  br label %249

249:                                              ; preds = %247, %242
  %250 = phi i32 [ %246, %242 ], [ %248, %247 ]
  store i32 %250, ptr %12, align 4, !tbaa !44
  br label %269

251:                                              ; preds = %196
  %252 = load i32, ptr %13, align 4, !tbaa !44
  %253 = load i32, ptr %7, align 4, !tbaa !44
  %254 = sub nsw i32 32, %253
  %255 = lshr i32 %252, %254
  store i32 %255, ptr %10, align 4, !tbaa !44
  %256 = load i32, ptr %14, align 4, !tbaa !44
  %257 = load i32, ptr %12, align 4, !tbaa !44
  %258 = load i32, ptr %7, align 4, !tbaa !44
  %259 = add i32 %257, %258
  %260 = icmp ugt i32 %256, %259
  br i1 %260, label %261, label %265

261:                                              ; preds = %251
  %262 = load i32, ptr %12, align 4, !tbaa !44
  %263 = load i32, ptr %7, align 4, !tbaa !44
  %264 = add i32 %262, %263
  br label %267

265:                                              ; preds = %251
  %266 = load i32, ptr %14, align 4, !tbaa !44
  br label %267

267:                                              ; preds = %265, %261
  %268 = phi i32 [ %264, %261 ], [ %266, %265 ]
  store i32 %268, ptr %12, align 4, !tbaa !44
  br label %269

269:                                              ; preds = %267, %249
  br label %271

270:                                              ; preds = %193
  store i32 0, ptr %10, align 4, !tbaa !44
  br label %271

271:                                              ; preds = %270, %269
  %272 = load i32, ptr %16, align 4, !tbaa !44
  %273 = load i32, ptr %7, align 4, !tbaa !44
  %274 = shl i32 %272, %273
  %275 = load i32, ptr %10, align 4, !tbaa !44
  %276 = add i32 %275, %274
  store i32 %276, ptr %10, align 4, !tbaa !44
  br label %304

277:                                              ; preds = %174
  %278 = load i32, ptr %16, align 4, !tbaa !44
  %279 = load i32, ptr %8, align 4, !tbaa !44
  %280 = sub nsw i32 %279, 1
  %281 = icmp eq i32 %278, %280
  br i1 %281, label %282, label %302

282:                                              ; preds = %277
  %283 = load i32, ptr %13, align 4, !tbaa !44
  %284 = load i32, ptr %9, align 4, !tbaa !44
  %285 = sub nsw i32 32, %284
  %286 = lshr i32 %283, %285
  store i32 %286, ptr %10, align 4, !tbaa !44
  %287 = load i32, ptr %14, align 4, !tbaa !44
  %288 = load i32, ptr %12, align 4, !tbaa !44
  %289 = load i32, ptr %9, align 4, !tbaa !44
  %290 = add i32 %288, %289
  %291 = icmp ugt i32 %287, %290
  br i1 %291, label %292, label %296

292:                                              ; preds = %282
  %293 = load i32, ptr %12, align 4, !tbaa !44
  %294 = load i32, ptr %9, align 4, !tbaa !44
  %295 = add i32 %293, %294
  br label %298

296:                                              ; preds = %282
  %297 = load i32, ptr %14, align 4, !tbaa !44
  br label %298

298:                                              ; preds = %296, %292
  %299 = phi i32 [ %295, %292 ], [ %297, %296 ]
  store i32 %299, ptr %12, align 4, !tbaa !44
  %300 = load i32, ptr %10, align 4, !tbaa !44
  %301 = add i32 %300, 1
  store i32 %301, ptr %10, align 4, !tbaa !44
  br label %303

302:                                              ; preds = %277
  store i32 -1, ptr %10, align 4, !tbaa !44
  br label %303

303:                                              ; preds = %302, %298
  br label %304

304:                                              ; preds = %303, %271
  %305 = load i32, ptr %12, align 4, !tbaa !44
  %306 = load ptr, ptr %6, align 8, !tbaa !86
  %307 = getelementptr inbounds nuw %struct.GetBitContext, ptr %306, i32 0, i32 2
  store i32 %305, ptr %307, align 8, !tbaa !88
  %308 = load i32, ptr %10, align 4, !tbaa !44
  store i32 %308, ptr %5, align 4
  store i32 1, ptr %15, align 4
  br label %309

309:                                              ; preds = %304, %101
  call void @llvm.lifetime.end.p0(i64 4, ptr %16) #11
  br label %310

310:                                              ; preds = %309, %77
  call void @llvm.lifetime.end.p0(i64 4, ptr %14) #11
  call void @llvm.lifetime.end.p0(i64 4, ptr %13) #11
  call void @llvm.lifetime.end.p0(i64 4, ptr %12) #11
  call void @llvm.lifetime.end.p0(i64 4, ptr %11) #11
  call void @llvm.lifetime.end.p0(i64 4, ptr %10) #11
  %311 = load i32, ptr %5, align 4
  ret i32 %311
}