; Function Attrs: inlinehint nofree norecurse nosync nounwind memory(read, argmem: readwrite, inaccessiblemem: none) uwtable
define internal fastcc i32 @get_ur_golomb_jpegls(ptr noundef captures(none) %0, i32 noundef %1) unnamed_addr #5 {
  %3 = getelementptr inbounds nuw i8, ptr %0, i64 16
  %4 = load i32, ptr %3, align 8, !tbaa !45
  %5 = getelementptr inbounds nuw i8, ptr %0, i64 24
  %6 = load i32, ptr %5, align 8, !tbaa !43
  %7 = load ptr, ptr %0, align 8, !tbaa !41
  %8 = lshr i32 %4, 3
  %9 = zext nneg i32 %8 to i64
  %10 = getelementptr inbounds nuw i8, ptr %7, i64 %9
  %11 = load i32, ptr %10, align 1, !tbaa !48
  %12 = tail call i32 @llvm.bswap.i32(i32 %11)
  %13 = and i32 %4, 7
  %14 = shl i32 %12, %13
  %.not.i = icmp ult i32 %14, 65536
  %15 = lshr i32 %14, 16
  %spec.select.i = select i1 %.not.i, i32 %14, i32 %15
  %spec.select12.i = select i1 %.not.i, i32 0, i32 16
  %.not11.i = icmp samesign ult i32 %spec.select.i, 256
  %16 = lshr i32 %spec.select.i, 8
  %17 = or disjoint i32 %spec.select12.i, 8
  %.110.i = select i1 %.not11.i, i32 %spec.select.i, i32 %16
  %.1.i = select i1 %.not11.i, i32 %spec.select12.i, i32 %17
  %18 = zext nneg i32 %.110.i to i64
  %19 = getelementptr inbounds nuw [256 x i8], ptr @ff_log2_tab, i64 0, i64 %18
  %20 = load i8, ptr %19, align 1, !tbaa !48
  %21 = zext i8 %20 to i32
  %22 = add nuw nsw i32 %.1.i, %21
  %23 = sub nsw i32 %22, %1
  %24 = icmp slt i32 %23, 7
  br i1 %24, label %.preheader127, label %28

.preheader127:                                    ; preds = %2
  %25 = icmp ult i32 %14, 128
  br i1 %25, label %.lr.ph, label %.preheader

.lr.ph:                                           ; preds = %.preheader127
  %26 = getelementptr inbounds nuw i8, ptr %0, i64 20
  %27 = load i32, ptr %26, align 4, !tbaa !42
  br label %39

28:                                               ; preds = %2
  %29 = lshr i32 %14, %23
  %30 = sub nsw i32 30, %22
  %31 = shl i32 %30, %1
  %32 = add i32 %29, %31
  %33 = add nsw i32 %1, 32
  %34 = add i32 %33, %4
  %35 = sub i32 %34, %22
  %. = tail call i32 @llvm.umin.i32(i32 %6, i32 %35)
  br label %.loopexit

.preheader:                                       ; preds = %41, %.preheader127
  %.0110.lcssa = phi i32 [ %4, %.preheader127 ], [ %43, %41 ]
  %.0108.lcssa = phi i32 [ %14, %.preheader127 ], [ %50, %41 ]
  %.0.lcssa = phi i32 [ 0, %.preheader127 ], [ %40, %41 ]
  %36 = icmp ne i32 %.0.lcssa, 2147483647
  %37 = icmp sgt i32 %.0108.lcssa, -1
  %38 = and i1 %36, %37
  br i1 %38, label %.lr.ph137, label %._crit_edge

39:                                               ; preds = %.lr.ph, %41
  %40 = phi i32 [ 25, %.lr.ph ], [ %51, %41 ]
  %.0110131 = phi i32 [ %4, %.lr.ph ], [ %43, %41 ]
  %.not123 = icmp ugt i32 %27, %.0110131
  br i1 %.not123, label %41, label %.loopexit

41:                                               ; preds = %39
  %42 = add i32 %.0110131, 25
  %43 = tail call i32 @llvm.umin.i32(i32 %6, i32 %42)
  %44 = lshr i32 %43, 3
  %45 = zext nneg i32 %44 to i64
  %46 = getelementptr inbounds nuw i8, ptr %7, i64 %45
  %47 = load i32, ptr %46, align 1, !tbaa !48
  %48 = tail call i32 @llvm.bswap.i32(i32 %47)
  %49 = and i32 %43, 7
  %50 = shl i32 %48, %49
  %51 = add nuw nsw i32 %40, 25
  %52 = icmp ult i32 %50, 128
  br i1 %52, label %39, label %.preheader, !llvm.loop !61

.lr.ph137:                                        ; preds = %.preheader, %.lr.ph137
  %.1136 = phi i32 [ %56, %.lr.ph137 ], [ %.0.lcssa, %.preheader ]
  %.1109135 = phi i32 [ %53, %.lr.ph137 ], [ %.0108.lcssa, %.preheader ]
  %.1111134 = phi i32 [ %55, %.lr.ph137 ], [ %.0110.lcssa, %.preheader ]
  %53 = shl nuw i32 %.1109135, 1
  %54 = add i32 %.1111134, 1
  %55 = tail call i32 @llvm.umin.i32(i32 %6, i32 %54)
  %56 = add nuw nsw i32 %.1136, 1
  %57 = icmp ne i32 %56, 2147483647
  %58 = icmp sgt i32 %53, -1
  %59 = select i1 %57, i1 %58, i1 false
  br i1 %59, label %.lr.ph137, label %._crit_edge, !llvm.loop !62

._crit_edge:                                      ; preds = %.lr.ph137, %.preheader
  %.1111.lcssa = phi i32 [ %.0110.lcssa, %.preheader ], [ %55, %.lr.ph137 ]
  %.1.lcssa = phi i32 [ %.0.lcssa, %.preheader ], [ %56, %.lr.ph137 ]
  %60 = add i32 %.1111.lcssa, 1
  %61 = tail call i32 @llvm.umin.i32(i32 %6, i32 %60)
  %62 = lshr i32 %61, 3
  %63 = zext nneg i32 %62 to i64
  %64 = getelementptr inbounds nuw i8, ptr %7, i64 %63
  %65 = load i32, ptr %64, align 1, !tbaa !48
  %66 = tail call i32 @llvm.bswap.i32(i32 %65)
  %67 = and i32 %61, 7
  %68 = shl i32 %66, %67
  %69 = icmp samesign ult i32 %.1.lcssa, 2147483646
  br i1 %69, label %70, label %98

70:                                               ; preds = %._crit_edge
  %.not122 = icmp eq i32 %1, 0
  br i1 %.not122, label %95, label %71

71:                                               ; preds = %70
  %72 = icmp sgt i32 %1, 24
  br i1 %72, label %73, label %90

73:                                               ; preds = %71
  %74 = lshr i32 %68, 16
  %75 = add nsw i32 %1, -16
  %76 = shl i32 %74, %75
  %77 = add i32 %61, 16
  %78 = tail call i32 @llvm.umin.i32(i32 %6, i32 %77)
  %79 = lshr i32 %78, 3
  %80 = zext nneg i32 %79 to i64
  %81 = getelementptr inbounds nuw i8, ptr %7, i64 %80
  %82 = load i32, ptr %81, align 1, !tbaa !48
  %83 = tail call i32 @llvm.bswap.i32(i32 %82)
  %84 = and i32 %78, 7
  %85 = shl i32 %83, %84
  %86 = sub nsw i32 48, %1
  %87 = lshr i32 %85, %86
  %88 = or i32 %87, %76
  %89 = add i32 %78, %75
  %.125 = tail call i32 @llvm.umin.i32(i32 %6, i32 %89)
  br label %95

90:                                               ; preds = %71
  %91 = sub nsw i32 32, %1
  %92 = lshr i32 %68, %91
  %93 = add i32 %61, %1
  %94 = tail call i32 @llvm.umin.i32(i32 %6, i32 %93)
  br label %95

95:                                               ; preds = %70, %73, %90
  %.0112 = phi i32 [ %88, %73 ], [ %92, %90 ], [ 0, %70 ]
  %.2 = phi i32 [ %.125, %73 ], [ %94, %90 ], [ %61, %70 ]
  %96 = shl i32 %.1.lcssa, %1
  %97 = add i32 %.0112, %96
  br label %.loopexit

98:                                               ; preds = %._crit_edge
  %99 = icmp eq i32 %.1.lcssa, 2147483646
  %.126 = select i1 %99, i32 1, i32 -1
  br label %.loopexit

.loopexit:                                        ; preds = %39, %98, %95, %28
  %storemerge124 = phi i32 [ %., %28 ], [ %.2, %95 ], [ %61, %98 ], [ %.0110131, %39 ]
  %.0106 = phi i32 [ %32, %28 ], [ %97, %95 ], [ %.126, %98 ], [ -1, %39 ]
  store i32 %storemerge124, ptr %3, align 8, !tbaa !45
  ret i32 %.0106
}